Certificate:
    Data:
        Version: 3 (0x2)
        Serial Number: 1 (0x1)
    Signature Algorithm: sha256WithRSAEncryption
        Issuer: C=UK, ST=London, L=London, O=MOJ, OU=PROBATE, CN=localhost
        Validity
            Not Before: Oct  2 15:31:56 2017 GMT
            Not After : Jun 28 15:31:56 2020 GMT
        Subject: C=UK, ST=London, L=London, O=MOJ, OU=PROBATE, CN=localhost
        Subject Public Key Info:
            Public Key Algorithm: rsaEncryption
                Public-Key: (2048 bit)
                Modulus:
                    00:ba:80:ce:ff:04:24:a5:67:0f:ed:61:cd:56:08:
                    e9:df:6c:2a:6d:a1:0c:f3:64:85:d2:03:21:a3:71:
                    e3:06:7c:71:e9:df:10:1d:43:97:3c:06:34:29:1c:
                    6c:73:8b:6a:85:f5:b9:29:27:c9:13:9a:0c:82:e5:
                    30:dc:e0:5b:df:3b:ae:c9:42:cd:4d:c0:de:29:77:
                    08:ba:53:28:31:09:90:ad:b9:ee:7f:4c:16:55:c7:
                    3f:43:92:f5:c8:d7:9b:ec:b8:fb:8e:9d:29:95:b9:
                    21:b9:91:15:e6:22:c7:47:af:10:cc:1f:15:03:6c:
                    d5:c9:bb:73:e3:df:8c:ce:43:5a:5f:2d:d4:60:38:
                    35:10:2c:ad:c9:b8:d2:64:fb:8d:9c:5f:2d:27:7e:
                    50:69:45:d9:90:45:22:2a:f8:08:10:4f:1d:77:5b:
                    d7:80:fc:d7:15:d5:25:9b:4d:64:c8:4e:94:1d:ec:
                    61:70:45:fd:e6:b7:cb:c0:f6:30:a3:d3:52:42:c5:
                    3e:f7:a1:f0:94:d2:7a:d4:49:00:67:53:f0:3d:c8:
                    99:50:ac:13:6c:d0:84:c8:32:15:1a:84:6b:95:79:
                    f9:ee:74:5c:88:38:8f:19:92:e3:34:c7:36:74:8f:
                    74:c4:7f:b8:65:bf:79:1e:95:a5:96:1a:96:d1:3b:
                    9c:91
                Exponent: 65537 (0x10001)
        X509v3 extensions:
            X509v3 Subject Key Identifier: 
                8A:0D:6A:07:80:B6:35:A9:2F:14:19:C6:C9:37:47:3F:CF:E0:A0:5A
            X509v3 Authority Key Identifier: 
                keyid:8A:0D:6A:07:80:B6:35:A9:2F:14:19:C6:C9:37:47:3F:CF:E0:A0:5A

            X509v3 Basic Constraints: 
                CA:TRUE
            X509v3 Key Usage: 
                Digital Signature, Key Encipherment
            X509v3 Subject Alternative Name: 
                DNS:localhost, DNS:authentication-web
    Signature Algorithm: sha256WithRSAEncryption
         a1:8f:5f:1a:04:c9:a8:15:0b:93:0e:0f:7f:b1:4f:3b:5b:a3:
         9d:f3:dd:df:6a:c4:05:90:ed:36:2d:46:7d:76:a4:74:5e:f5:
         2e:f5:97:06:93:26:7f:30:ea:54:90:7d:74:0d:57:a7:54:c7:
         36:34:33:d9:92:68:dd:e2:c2:41:af:60:9c:31:90:9b:fe:8a:
         59:9f:03:93:86:9f:8a:c2:60:e3:b0:94:3b:0f:67:87:5d:07:
         4f:47:fc:15:ed:97:cf:15:8e:38:ea:e1:0b:ed:ff:55:28:81:
         48:7f:3c:e9:6e:2a:12:e2:f2:82:eb:3d:5a:a3:8d:bd:94:6f:
         a8:4e:5f:fa:6e:af:14:ed:76:0e:6b:b6:26:85:c9:8d:9d:04:
         f4:81:85:74:bd:28:ba:58:fa:02:79:e8:a3:b2:10:56:93:1a:
         e2:d7:ad:a7:0c:0b:98:51:32:86:9d:9b:1e:50:f2:3b:68:58:
         41:3b:05:f9:f5:a4:71:cd:7b:b2:4a:95:c4:ec:17:a3:04:67:
         94:29:b2:4c:70:02:89:80:75:2d:b4:d9:09:96:a9:9b:37:8e:
         ef:f9:18:7d:a7:71:ed:fd:e9:38:b9:b3:ea:66:f6:e9:bf:57:
         0d:1d:e7:8a:28:0d:95:18:d8:94:85:31:79:ba:cd:66:c3:c1:
         9b:66:ce:e3
-----BEGIN CERTIFICATE-----
MIIDyjCCArKgAwIBAgIBATANBgkqhkiG9w0BAQsFADBjMQswCQYDVQQGEwJVSzEP
MA0GA1UECAwGTG9uZG9uMQ8wDQYDVQQHDAZMb25kb24xDDAKBgNVBAoMA01PSjEQ
MA4GA1UECwwHUFJPQkFURTESMBAGA1UEAwwJbG9jYWxob3N0MB4XDTE3MTAwMjE1
MzE1NloXDTIwMDYyODE1MzE1NlowYzELMAkGA1UEBhMCVUsxDzANBgNVBAgMBkxv
bmRvbjEPMA0GA1UEBwwGTG9uZG9uMQwwCgYDVQQKDANNT0oxEDAOBgNVBAsMB1BS
T0JBVEUxEjAQBgNVBAMMCWxvY2FsaG9zdDCCASIwDQYJKoZIhvcNAQEBBQADggEP
ADCCAQoCggEBALqAzv8EJKVnD+1hzVYI6d9sKm2hDPNkhdIDIaNx4wZ8cenfEB1D
lzwGNCkcbHOLaoX1uSknyROaDILlMNzgW987rslCzU3A3il3CLpTKDEJkK257n9M
FlXHP0OS9cjXm+y4+46dKZW5IbmRFeYix0evEMwfFQNs1cm7c+PfjM5DWl8t1GA4
NRAsrcm40mT7jZxfLSd+UGlF2ZBFIir4CBBPHXdb14D81xXVJZtNZMhOlB3sYXBF
/ea3y8D2MKPTUkLFPveh8JTSetRJAGdT8D3ImVCsE2zQhMgyFRqEa5V5+e50XIg4
jxmS4zTHNnSPdMR/uGW/eR6VpZYaltE7nJECAwEAAaOBiDCBhTAdBgNVHQ4EFgQU
ig1qB4C2NakvFBnGyTdHP8/goFowHwYDVR0jBBgwFoAUig1qB4C2NakvFBnGyTdH
P8/goFowDAYDVR0TBAUwAwEB/zALBgNVHQ8EBAMCBaAwKAYDVR0RBCEwH4IJbG9j
YWxob3N0ghJhdXRoZW50aWNhdGlvbi13ZWIwDQYJKoZIhvcNAQELBQADggEBAKGP
XxoEyagVC5MOD3+xTztbo53z3d9qxAWQ7TYtRn12pHRe9S71lwaTJn8w6lSQfXQN
V6dUxzY0M9mSaN3iwkGvYJwxkJv+ilmfA5OGn4rCYOOwlDsPZ4ddB09H/BXtl88V
jjjq4Qvt/1UogUh/POluKhLi8oLrPVqjjb2Ub6hOX/purxTtdg5rtiaFyY2dBPSB
hXS9KLpY+gJ56KOyEFaTGuLXracMC5hRMoadmx5Q8jtoWEE7Bfn1pHHNe7JKlcTs
F6MEZ5QpskxwAomAdS202QmWqZs3ju/5GH2nce396Ti5s+pm9um/Vw0d54ooDZUY
2JSFMXm6zWbDwZtmzuM=
-----END CERTIFICATE-----
